target datalayout = "e-m:e-p270:32:32-p271:32:32-p272:64:64-i64:64-i128:128-f80:128-n8:16:32:64-S128"
target triple = "x86_64-pc-linux-gnu"

%struct.H5D_chunk_rec_t = type { [33 x i64], i32, i32, i64 }
%struct.H5D_chunk_info_iter_ud_t = type { [33 x i64], i64, i32, i32, i64, i64, i64, i32, i8 }

@H5D_init_g = external global i8, align 1
@H5_libterm_g = external global i8, align 1

; Function Attrs: nounwind uwtable
define internal i32 @H5D__get_chunk_info_cb(ptr noundef %0, ptr noundef %1) #0 {
  %3 = alloca ptr, align 8
  %4 = alloca ptr, align 8
  %5 = alloca ptr, align 8
  %6 = alloca i32, align 4
  %7 = alloca i64, align 8
  store ptr %0, ptr %3, align 8, !tbaa !259
  store ptr %1, ptr %4, align 8, !tbaa !154
  call void @llvm.lifetime.start.p0(i64 8, ptr %5) #10
  %8 = load ptr, ptr %4, align 8, !tbaa !154
  store ptr %8, ptr %5, align 8, !tbaa !407
  call void @llvm.lifetime.start.p0(i64 4, ptr %6) #10
  store i32 0, ptr %6, align 4, !tbaa !10
  %9 = load i8, ptr @H5D_init_g, align 1, !tbaa !12, !range !14, !noundef !15
  %10 = trunc i8 %9 to i1
  br i1 %10, label %15, label %11

11:                                               ; preds = %2
  %12 = load i8, ptr @H5_libterm_g, align 1, !tbaa !12, !range !14, !noundef !15
  %13 = trunc i8 %12 to i1
  %14 = xor i1 %13, true
  br label %15

15:                                               ; preds = %11, %2
  %16 = phi i1 [ true, %2 ], [ %14, %11 ]
  %17 = xor i1 %16, true
  %18 = xor i1 %17, true
  %19 = zext i1 %18 to i32
  %20 = sext i32 %19 to i64
  %21 = call i64 @llvm.expect.i64(i64 %20, i64 1)
  %22 = icmp ne i64 %21, 0
  br i1 %22, label %23, label %75

23:                                               ; preds = %15
  %24 = load ptr, ptr %5, align 8, !tbaa !407
  %25 = getelementptr inbounds nuw %struct.H5D_chunk_info_iter_ud_t, ptr %24, i32 0, i32 6
  %26 = load i64, ptr %25, align 8, !tbaa !400
  %27 = load ptr, ptr %5, align 8, !tbaa !407
  %28 = getelementptr inbounds nuw %struct.H5D_chunk_info_iter_ud_t, ptr %27, i32 0, i32 5
  %29 = load i64, ptr %28, align 8, !tbaa !398
  %30 = icmp eq i64 %26, %29
  br i1 %30, label %31, label %69

31:                                               ; preds = %23
  call void @llvm.lifetime.start.p0(i64 8, ptr %7) #10
  store i64 0, ptr %7, align 8, !tbaa !24
  %32 = load ptr, ptr %3, align 8, !tbaa !259
  %33 = getelementptr inbounds nuw %struct.H5D_chunk_rec_t, ptr %32, i32 0, i32 2
  %34 = load i32, ptr %33, align 4, !tbaa !360
  %35 = load ptr, ptr %5, align 8, !tbaa !407
  %36 = getelementptr inbounds nuw %struct.H5D_chunk_info_iter_ud_t, ptr %35, i32 0, i32 3
  store i32 %34, ptr %36, align 4, !tbaa !403
  %37 = load ptr, ptr %3, align 8, !tbaa !259
  %38 = getelementptr inbounds nuw %struct.H5D_chunk_rec_t, ptr %37, i32 0, i32 3
  %39 = load i64, ptr %38, align 8, !tbaa !361
  %40 = load ptr, ptr %5, align 8, !tbaa !407
  %41 = getelementptr inbounds nuw %struct.H5D_chunk_info_iter_ud_t, ptr %40, i32 0, i32 4
  store i64 %39, ptr %41, align 8, !tbaa !404
  %42 = load ptr, ptr %3, align 8, !tbaa !259
  %43 = getelementptr inbounds nuw %struct.H5D_chunk_rec_t, ptr %42, i32 0, i32 1
  %44 = load i32, ptr %43, align 8, !tbaa !261
  %45 = load ptr, ptr %5, align 8, !tbaa !407
  %46 = getelementptr inbounds nuw %struct.H5D_chunk_info_iter_ud_t, ptr %45, i32 0, i32 2
  store i32 %44, ptr %46, align 8, !tbaa !402
  store i64 0, ptr %7, align 8, !tbaa !24
  br label %47

47:                                               ; preds = %63, %31
  %48 = load i64, ptr %7, align 8, !tbaa !24
  %49 = load ptr, ptr %5, align 8, !tbaa !407
  %50 = getelementptr inbounds nuw %struct.H5D_chunk_info_iter_ud_t, ptr %49, i32 0, i32 1
  %51 = load i64, ptr %50, align 8, !tbaa !401
  %52 = icmp ult i64 %48, %51
  br i1 %52, label %53, label %66

53:                                               ; preds = %47
  %54 = load ptr, ptr %3, align 8, !tbaa !259
  %55 = getelementptr inbounds nuw %struct.H5D_chunk_rec_t, ptr %54, i32 0, i32 0
  %56 = load i64, ptr %7, align 8, !tbaa !24
  %57 = getelementptr inbounds nuw [33 x i64], ptr %55, i64 0, i64 %56
  %58 = load i64, ptr %57, align 8, !tbaa !24
  %59 = load ptr, ptr %5, align 8, !tbaa !407
  %60 = getelementptr inbounds nuw %struct.H5D_chunk_info_iter_ud_t, ptr %59, i32 0, i32 0
  %61 = load i64, ptr %7, align 8, !tbaa !24
  %62 = getelementptr inbounds nuw [33 x i64], ptr %60, i64 0, i64 %61
  store i64 %58, ptr %62, align 8, !tbaa !24
  br label %63

63:                                               ; preds = %53
  %64 = load i64, ptr %7, align 8, !tbaa !24
  %65 = add i64 %64, 1
  store i64 %65, ptr %7, align 8, !tbaa !24
  br label %47, !llvm.loop !409

66:                                               ; preds = %47
  %67 = load ptr, ptr %5, align 8, !tbaa !407
  %68 = getelementptr inbounds nuw %struct.H5D_chunk_info_iter_ud_t, ptr %67, i32 0, i32 8
  store i8 1, ptr %68, align 4, !tbaa !405
  store i32 1, ptr %6, align 4, !tbaa !10
  call void @llvm.lifetime.end.p0(i64 8, ptr %7) #10
  br label %74

69:                                               ; preds = %23
  %70 = load ptr, ptr %5, align 8, !tbaa !407
  %71 = getelementptr inbounds nuw %struct.H5D_chunk_info_iter_ud_t, ptr %70, i32 0, i32 6
  %72 = load i64, ptr %71, align 8, !tbaa !400
  %73 = add i64 %72, 1
  store i64 %73, ptr %71, align 8, !tbaa !400
  br label %74

74:                                               ; preds = %69, %66
  br label %75

75:                                               ; preds = %74, %15
  %76 = load i32, ptr %6, align 4, !tbaa !10
  call void @llvm.lifetime.end.p0(i64 4, ptr %6) #10
  call void @llvm.lifetime.end.p0(i64 8, ptr %5) #10
  ret i32 %76
}