; Function Attrs: nofree norecurse nosync nounwind memory(read, argmem: readwrite, inaccessiblemem: none) uwtable
define internal range(i32 0, 2) i32 @H5D__get_chunk_info_cb(ptr noundef readonly captures(none) %0, ptr noundef captures(none) %1) #11 {
  %3 = load i8, ptr @H5D_init_g, align 1, !tbaa !3, !range !7, !noundef !8
  %4 = trunc nuw i8 %3 to i1
  %5 = load i8, ptr @H5_libterm_g, align 1, !range !7
  %6 = trunc nuw i8 %5 to i1
  %7 = xor i1 %6, true
  %8 = select i1 %4, i1 true, i1 %7
  br i1 %8, label %9, label %36, !prof !9

9:                                                ; preds = %2
  %10 = getelementptr inbounds nuw i8, ptr %1, i64 296
  %11 = load i64, ptr %10, align 8, !tbaa !375
  %12 = getelementptr inbounds nuw i8, ptr %1, i64 288
  %13 = load i64, ptr %12, align 8, !tbaa !373
  %14 = icmp eq i64 %11, %13
  br i1 %14, label %15, label %34

15:                                               ; preds = %9
  %16 = getelementptr inbounds nuw i8, ptr %0, i64 268
  %17 = load i32, ptr %16, align 4, !tbaa !346
  %18 = getelementptr inbounds nuw i8, ptr %1, i64 276
  store i32 %17, ptr %18, align 4, !tbaa !378
  %19 = getelementptr inbounds nuw i8, ptr %0, i64 272
  %20 = load i64, ptr %19, align 8, !tbaa !347
  %21 = getelementptr inbounds nuw i8, ptr %1, i64 280
  store i64 %20, ptr %21, align 8, !tbaa !379
  %22 = getelementptr inbounds nuw i8, ptr %0, i64 264
  %23 = load i32, ptr %22, align 8, !tbaa !253
  %24 = getelementptr inbounds nuw i8, ptr %1, i64 272
  store i32 %23, ptr %24, align 8, !tbaa !377
  %25 = getelementptr inbounds nuw i8, ptr %1, i64 264
  %26 = load i64, ptr %25, align 8, !tbaa !376
  %.not = icmp eq i64 %26, 0
  br i1 %.not, label %._crit_edge, label %.lr.ph

.lr.ph:                                           ; preds = %15, %.lr.ph
  %.020 = phi i64 [ %30, %.lr.ph ], [ 0, %15 ]
  %27 = getelementptr inbounds nuw [33 x i64], ptr %0, i64 0, i64 %.020
  %28 = load i64, ptr %27, align 8, !tbaa !21
  %29 = getelementptr inbounds nuw [33 x i64], ptr %1, i64 0, i64 %.020
  store i64 %28, ptr %29, align 8, !tbaa !21
  %30 = add nuw i64 %.020, 1
  %31 = load i64, ptr %25, align 8, !tbaa !376
  %32 = icmp ult i64 %30, %31
  br i1 %32, label %.lr.ph, label %._crit_edge, !llvm.loop !382

._crit_edge:                                      ; preds = %.lr.ph, %15
  %33 = getelementptr inbounds nuw i8, ptr %1, i64 308
  store i8 1, ptr %33, align 4, !tbaa !380
  br label %36

34:                                               ; preds = %9
  %35 = add i64 %11, 1
  store i64 %35, ptr %10, align 8, !tbaa !375
  br label %36

36:                                               ; preds = %._crit_edge, %34, %2
  %.018 = phi i32 [ 1, %._crit_edge ], [ 0, %34 ], [ 0, %2 ]
  ret i32 %.018
}